Certificate:
    Data:
        Version: 3 (0x2)
        Serial Number:
            d0:ef:8a:bb:5c:af:73:4e:2d:64:b9:91:b4:40:44:70
        Signature Algorithm: ecdsa-with-SHA512
        Issuer: CN=http-ca
        Validity
            Not Before: Oct 21 12:37:48 2023 GMT
            Not After : Oct 20 12:37:48 2024 GMT
        Subject: CN=http.local
        Subject Public Key Info:
            Public Key Algorithm: id-ecPublicKey
                Public-Key: (384 bit)
                pub:
                    04:07:5f:62:78:46:c4:32:e8:c0:e9:66:0a:06:b5:
                    9b:64:18:49:f3:36:b7:e6:84:38:2a:db:7c:d5:b5:
                    a1:84:88:ff:d5:1e:9b:44:fe:ef:44:3f:6d:d6:9a:
                    65:01:04:f0:53:3a:1a:dc:9d:e4:a2:61:53:2e:d0:
                    1d:19:01:cd:b0:ac:ae:eb:b9:1f:66:50:41:c1:f3:
                    9a:06:6e:0b:84:2c:e5:cc:a5:21:56:f1:67:cd:be:
                    51:bc:6e:11:e9:58:84
                ASN1 OID: secp384r1
                NIST CURVE: P-384
        X509v3 extensions:
            X509v3 Basic Constraints: 
                CA:FALSE
            X509v3 Subject Key Identifier: 
                C5:C6:85:DF:3F:6A:58:A2:06:81:56:0C:10:64:3E:22:09:FA:BD:B8
            X509v3 Authority Key Identifier: 
                keyid:E6:C9:E6:E9:FE:54:39:BC:9F:CB:28:83:28:47:D7:D9:B8:67:C5:A2
                DirName:/CN=http-ca
                serial:3F:8B:42:C8:C5:8C:ED:28:96:91:AD:D3:82:A7:10:A5:E9:6B:E9:3B
            X509v3 Extended Key Usage: 
                TLS Web Server Authentication
            X509v3 Key Usage: 
                Digital Signature, Key Encipherment
            X509v3 Subject Alternative Name: 
                DNS:http.local
    Signature Algorithm: ecdsa-with-SHA512
    Signature Value:
        30:66:02:31:00:b0:03:db:1c:9f:e9:56:39:3c:54:24:df:15:
        15:83:55:87:56:55:23:c9:3e:38:85:5e:f4:83:03:43:46:1e:
        3c:0e:ad:8a:7e:10:fb:d6:4a:3e:b5:ae:ed:94:80:4e:2d:02:
        31:00:e0:d3:1f:96:0a:60:c7:17:90:d6:50:da:78:37:82:66:
        87:14:0e:c6:6d:38:bf:79:de:4b:ff:4f:13:36:aa:7d:81:61:
        cf:f4:5f:43:eb:02:d0:af:ab:7e:5e:a6:a7:a9
-----BEGIN CERTIFICATE-----
MIICGjCCAZ+gAwIBAgIRANDvirtcr3NOLWS5kbRARHAwCgYIKoZIzj0EAwQwEjEQ
MA4GA1UEAwwHaHR0cC1jYTAeFw0yMzEwMjExMjM3NDhaFw0yNDEwMjAxMjM3NDha
MBUxEzARBgNVBAMMCmh0dHAubG9jYWwwdjAQBgcqhkjOPQIBBgUrgQQAIgNiAAQH
X2J4RsQy6MDpZgoGtZtkGEnzNrfmhDgq23zVtaGEiP/VHptE/u9EP23WmmUBBPBT
OhrcneSiYVMu0B0ZAc2wrK7ruR9mUEHB85oGbguELOXMpSFW8WfNvlG8bhHpWISj
gbUwgbIwCQYDVR0TBAIwADAdBgNVHQ4EFgQUxcaF3z9qWKIGgVYMEGQ+Ign6vbgw
TQYDVR0jBEYwRIAU5snm6f5UObyfyyiDKEfX2bhnxaKhFqQUMBIxEDAOBgNVBAMM
B2h0dHAtY2GCFD+LQsjFjO0olpGt04KnEKXpa+k7MBMGA1UdJQQMMAoGCCsGAQUF
BwMBMAsGA1UdDwQEAwIFoDAVBgNVHREEDjAMggpodHRwLmxvY2FsMAoGCCqGSM49
BAMEA2kAMGYCMQCwA9scn+lWOTxUJN8VFYNVh1ZVI8k+OIVe9IMDQ0YePA6tin4Q
+9ZKPrWu7ZSATi0CMQDg0x+WCmDHF5DWUNp4N4JmhxQOxm04v3neS/9PEzaqfYFh
z/RfQ+sC0K+rfl6mp6k=
-----END CERTIFICATE-----
